target datalayout = "e-m:e-p270:32:32-p271:32:32-p272:64:64-i64:64-i128:128-f80:128-n8:16:32:64-S128"
target triple = "x86_64-pc-linux-gnu"

@.str.12 = private unnamed_addr constant [4 x i8] c"%s \00", align 1
@mpd_flag_string = internal global [15 x ptr] [ptr @.str.19, ptr @.str.20, ptr @.str.21, ptr @.str.22, ptr @.str.23, ptr @.str.24, ptr @.str.25, ptr @.str.26, ptr @.str.27, ptr @.str.28, ptr @.str.29, ptr @.str.30, ptr @.str.31, ptr @.str.32, ptr @.str.33], align 16

; Function Attrs: nounwind uwtable
define hidden i32 @mpd_snprint_flags(ptr noundef %0, i32 noundef %1, i32 noundef %2) #0 {
  %4 = alloca i32, align 4
  %5 = alloca ptr, align 8
  %6 = alloca i32, align 4
  %7 = alloca i32, align 4
  %8 = alloca ptr, align 8
  %9 = alloca i32, align 4
  %10 = alloca i32, align 4
  %11 = alloca i32, align 4
  store ptr %0, ptr %5, align 8, !tbaa !8
  store i32 %1, ptr %6, align 4, !tbaa !25
  store i32 %2, ptr %7, align 4, !tbaa !25
  call void @llvm.lifetime.start.p0(i64 8, ptr %8) #10
  call void @llvm.lifetime.start.p0(i64 4, ptr %9) #10
  call void @llvm.lifetime.start.p0(i64 4, ptr %10) #10
  %12 = load ptr, ptr %5, align 8, !tbaa !8
  store i8 0, ptr %12, align 1, !tbaa !14
  %13 = load ptr, ptr %5, align 8, !tbaa !8
  store ptr %13, ptr %8, align 8, !tbaa !8
  store i32 0, ptr %10, align 4, !tbaa !25
  br label %14

14:                                               ; preds = %48, %3
  %15 = load i32, ptr %10, align 4, !tbaa !25
  %16 = icmp slt i32 %15, 15
  br i1 %16, label %17, label %51

17:                                               ; preds = %14
  %18 = load i32, ptr %7, align 4, !tbaa !25
  %19 = load i32, ptr %10, align 4, !tbaa !25
  %20 = shl i32 1, %19
  %21 = and i32 %18, %20
  %22 = icmp ne i32 %21, 0
  br i1 %22, label %23, label %47

23:                                               ; preds = %17
  %24 = load ptr, ptr %8, align 8, !tbaa !8
  %25 = load i32, ptr %6, align 4, !tbaa !25
  %26 = sext i32 %25 to i64
  %27 = load i32, ptr %10, align 4, !tbaa !25
  %28 = sext i32 %27 to i64
  %29 = getelementptr [15 x ptr], ptr @mpd_flag_string, i64 0, i64 %28
  %30 = load ptr, ptr %29, align 8, !tbaa !8
  %31 = call i32 (ptr, i64, ptr, ...) @snprintf(ptr noundef %24, i64 noundef %26, ptr noundef @.str.12, ptr noundef %30) #10
  store i32 %31, ptr %9, align 4, !tbaa !25
  %32 = load i32, ptr %9, align 4, !tbaa !25
  %33 = icmp slt i32 %32, 0
  br i1 %33, label %38, label %34

34:                                               ; preds = %23
  %35 = load i32, ptr %9, align 4, !tbaa !25
  %36 = load i32, ptr %6, align 4, !tbaa !25
  %37 = icmp sge i32 %35, %36
  br i1 %37, label %38, label %39

38:                                               ; preds = %34, %23
  store i32 -1, ptr %4, align 4
  store i32 1, ptr %11, align 4
  br label %65

39:                                               ; preds = %34
  %40 = load i32, ptr %9, align 4, !tbaa !25
  %41 = load ptr, ptr %8, align 8, !tbaa !8
  %42 = sext i32 %40 to i64
  %43 = getelementptr i8, ptr %41, i64 %42
  store ptr %43, ptr %8, align 8, !tbaa !8
  %44 = load i32, ptr %9, align 4, !tbaa !25
  %45 = load i32, ptr %6, align 4, !tbaa !25
  %46 = sub i32 %45, %44
  store i32 %46, ptr %6, align 4, !tbaa !25
  br label %47

47:                                               ; preds = %39, %17
  br label %48

48:                                               ; preds = %47
  %49 = load i32, ptr %10, align 4, !tbaa !25
  %50 = add i32 %49, 1
  store i32 %50, ptr %10, align 4, !tbaa !25
  br label %14, !llvm.loop !77

51:                                               ; preds = %14
  %52 = load ptr, ptr %8, align 8, !tbaa !8
  %53 = load ptr, ptr %5, align 8, !tbaa !8
  %54 = icmp ne ptr %52, %53
  br i1 %54, label %55, label %58

55:                                               ; preds = %51
  %56 = load ptr, ptr %8, align 8, !tbaa !8
  %57 = getelementptr i8, ptr %56, i32 -1
  store ptr %57, ptr %8, align 8, !tbaa !8
  store i8 0, ptr %57, align 1, !tbaa !14
  br label %58

58:                                               ; preds = %55, %51
  %59 = load ptr, ptr %8, align 8, !tbaa !8
  %60 = load ptr, ptr %5, align 8, !tbaa !8
  %61 = ptrtoint ptr %59 to i64
  %62 = ptrtoint ptr %60 to i64
  %63 = sub i64 %61, %62
  %64 = trunc i64 %63 to i32
  store i32 %64, ptr %4, align 4
  store i32 1, ptr %11, align 4
  br label %65

65:                                               ; preds = %58, %38
  call void @llvm.lifetime.end.p0(i64 4, ptr %10) #10
  call void @llvm.lifetime.end.p0(i64 4, ptr %9) #10
  call void @llvm.lifetime.end.p0(i64 8, ptr %8) #10
  %66 = load i32, ptr %4, align 4
  ret i32 %66
}