; Function Attrs: nofree nounwind uwtable
define hidden noundef i32 @mpd_snprint_flags(ptr noundef initializes((0, 1)) %0, i32 noundef %1, i32 noundef %2) local_unnamed_addr #12 {
  store i8 0, ptr %0, align 1, !tbaa !11
  br label %4

4:                                                ; preds = %3, %18
  %indvars.iv = phi i64 [ 0, %3 ], [ %indvars.iv.next, %18 ]
  %.02230 = phi ptr [ %0, %3 ], [ %.1, %18 ]
  %.02329 = phi i32 [ %1, %3 ], [ %.124, %18 ]
  %5 = trunc nuw nsw i64 %indvars.iv to i32
  %6 = shl nuw nsw i32 1, %5
  %7 = and i32 %6, %2
  %.not26 = icmp eq i32 %7, 0
  br i1 %.not26, label %18, label %8

8:                                                ; preds = %4
  %9 = sext i32 %.02329 to i64
  %10 = getelementptr [15 x ptr], ptr @mpd_flag_string, i64 0, i64 %indvars.iv
  %11 = load ptr, ptr %10, align 8, !tbaa !26
  %12 = tail call i32 (ptr, i64, ptr, ...) @snprintf(ptr noundef %.02230, i64 noundef %9, ptr noundef nonnull @.str.12, ptr noundef %11) #18
  %13 = icmp sgt i32 %12, -1
  %.not27 = icmp slt i32 %12, %.02329
  %or.cond = select i1 %13, i1 %.not27, i1 false
  br i1 %or.cond, label %14, label %.loopexit

14:                                               ; preds = %8
  %15 = zext nneg i32 %12 to i64
  %16 = getelementptr i8, ptr %.02230, i64 %15
  %17 = sub nsw i32 %.02329, %12
  br label %18

18:                                               ; preds = %4, %14
  %.124 = phi i32 [ %17, %14 ], [ %.02329, %4 ]
  %.1 = phi ptr [ %16, %14 ], [ %.02230, %4 ]
  %indvars.iv.next = add nuw nsw i64 %indvars.iv, 1
  %exitcond.not = icmp eq i64 %indvars.iv.next, 15
  br i1 %exitcond.not, label %19, label %4, !llvm.loop !67

19:                                               ; preds = %18
  %.not = icmp eq ptr %.1, %0
  br i1 %.not, label %22, label %20

20:                                               ; preds = %19
  %21 = getelementptr i8, ptr %.1, i64 -1
  store i8 0, ptr %21, align 1, !tbaa !11
  br label %22

22:                                               ; preds = %20, %19
  %.2 = phi ptr [ %21, %20 ], [ %0, %19 ]
  %23 = ptrtoint ptr %.2 to i64
  %24 = ptrtoint ptr %0 to i64
  %25 = sub i64 %23, %24
  %26 = trunc i64 %25 to i32
  br label %.loopexit

.loopexit:                                        ; preds = %8, %22
  %.021 = phi i32 [ %26, %22 ], [ -1, %8 ]
  ret i32 %.021
}